(dp1
Vsort_id
p2
I0
sVsort_order
p3
I0
sVcolumns
p4
(dp5
S'Priority'
p6
(dp7
Vposition
p8
I3
sVwidth
p9
I782
ssS'Progress'
p10
(dp11
g8
I2
sg9
I100
ssS'Size'
p12
(dp13
g8
I1
sg9
I50
ssS'Filename'
p14
(dp15
g8
I0
sg9
I200
sss.