(dp1
Vsort_id
p2
NsVsort_order
p3
NsVcolumns
p4
(dp5
N(dp6
Vposition
p7
I0
sVwidth
p8
I20
ssS'Client'
p9
(dp10
g7
I2
sg8
I100
ssS'Address'
p11
(dp12
g7
I1
sg8
I100
ssS'Progress'
p13
(dp14
g7
I3
sg8
I100
ssS'Up Speed'
p15
(dp16
g7
I5
sg8
I719
ssS'Down Speed'
p17
(dp18
g7
I4
sg8
I93
sss.